Certificate:
    Data:
        Version: 3 (0x2)
        Serial Number: 286 (0x11e)
        Signature Algorithm: sha1WithRSAEncryption
        Issuer: C=us, ST=wa, L=Redmond, O=Microsoft, OU=SPOT, CN=Device.Microsoft.Com/emailAddress=aldenl@microsoft.com
        Validity
            Not Before: Mar 21 22:32:08 2008 GMT
            Not After : Mar 21 22:32:08 2009 GMT
        Subject: C=us, ST=wa, L=redmond, O=microsoft, OU=SPOT, CN=Device.Microsoft.Com/emailAddress=aldenl@microsoft.com
        Subject Public Key Info:
            Public Key Algorithm: rsaEncryption
            RSA Public Key: (1024 bit)
                Modulus (1024 bit):
                    00:b9:ec:b7:8d:13:0f:0c:90:dd:2a:9c:ee:c8:aa:
                    b2:82:d8:3a:34:91:96:1d:91:80:9d:c1:b6:80:49:
                    be:04:33:c8:ea:ab:1e:cb:2c:3c:51:4d:11:cf:34:
                    28:6d:5f:86:ff:67:ee:92:50:89:e8:67:b7:1d:73:
                    0d:a8:c1:8e:d7:f1:ce:a7:31:17:0d:2a:71:70:27:
                    13:09:84:27:fa:33:e5:1e:b4:95:36:c8:28:08:5d:
                    ba:10:c7:46:78:69:97:89:c1:01:17:29:e2:db:69:
                    a1:a8:70:91:1d:f8:34:68:dd:b6:cd:f2:9b:4d:cd:
                    98:ab:39:5d:63:bb:c8:30:b5
                Exponent: 65537 (0x10001)
        X509v3 extensions:
            X509v3 Basic Constraints: 
                CA:FALSE
            Netscape Comment: 
                OpenSSL Generated Certificate
            X509v3 Subject Key Identifier: 
                24:A3:D6:9C:8C:C6:6F:CA:ED:B8:DE:41:40:11:B3:10:66:75:09:DE
            X509v3 Authority Key Identifier: 
                keyid:D9:DD:9B:94:6B:8A:3C:AE:2A:51:B6:3D:7E:4E:7C:9B:93:64:30:E3

    Signature Algorithm: sha1WithRSAEncryption
        7e:08:ab:ef:87:4c:79:3a:31:9e:e5:c7:55:5d:a1:c2:00:6b:
        98:65:1c:be:c0:9b:6d:35:9c:5e:8b:5d:a3:f2:a5:ca:4b:dc:
        1a:dc:7f:61:6b:1d:4e:53:4d:c5:97:0d:07:50:37:73:40:6e:
        a9:8b:41:55:01:27:55:b7:7f:70:0b:27:e4:12:87:bd:35:37:
        09:f7:19:03:42:a6:ee:1b:6b:df:b9:67:f2:ce:0f:7a:32:cd:
        6a:4a:29:be:cb:15:14:7f:83:2f:67:de:0c:99:09:aa:4a:b6:
        ca:cc:fc:16:7f:07:9c:8c:8f:34:cd:40:c0:2b:0e:9b:6c:b3:
        ac:58:a8:56:96:21:8c:e6:fc:2b:dc:46:eb:df:88:92:a5:04:
        e9:96:d8:88:de:47:6d:60:4d:30:aa:ab:1b:ea:9e:2f:71:5a:
        27:0c:05:90:21:9f:49:b9:f2:72:8e:89:96:fa:ba:ca:92:ba:
        55:45:a4:98:b7:ba:2d:86:54:16:94:7a:cf:41:9a:19:05:0e:
        22:9e:9c:e5:3d:65:44:e9:3c:fc:62:4c:5a:05:b4:d9:18:87:
        e5:94:65:23:eb:4e:dd:f7:e2:97:84:69:15:bf:91:9c:f9:4f:
        c4:61:eb:a0:01:f8:4e:e8:76:16:aa:7b:17:96:c2:f5:2a:79:
        fb:d3:01:3d
-----BEGIN CERTIFICATE-----
MIIDmzCCAoOgAwIBAgICAR4wDQYJKoZIhvcNAQEFBQAwgZMxCzAJBgNVBAYTAnVz
MQswCQYDVQQIEwJ3YTEQMA4GA1UEBxMHUmVkbW9uZDESMBAGA1UEChMJTWljcm9z
b2Z0MQ0wCwYDVQQLEwRTUE9UMR0wGwYDVQQDExREZXZpY2UuTWljcm9zb2Z0LkNv
bTEjMCEGCSqGSIb3DQEJARYUYWxkZW5sQG1pY3Jvc29mdC5jb20wHhcNMDgwMzIx
MjIzMjA4WhcNMDkwMzIxMjIzMjA4WjCBkzELMAkGA1UEBhMCdXMxCzAJBgNVBAgT
AndhMRAwDgYDVQQHEwdyZWRtb25kMRIwEAYDVQQKEwltaWNyb3NvZnQxDTALBgNV
BAsTBFNQT1QxHTAbBgNVBAMTFERldmljZS5NaWNyb3NvZnQuQ29tMSMwIQYJKoZI
hvcNAQkBFhRhbGRlbmxAbWljcm9zb2Z0LmNvbTCBnzANBgkqhkiG9w0BAQEFAAOB
jQAwgYkCgYEAuey3jRMPDJDdKpzuyKqygtg6NJGWHZGAncG2gEm+BDPI6qseyyw8
UU0RzzQobV+G/2fuklCJ6Ge3HXMNqMGO1/HOpzEXDSpxcCcTCYQn+jPlHrSVNsgo
CF26EMdGeGmXicEBFyni22mhqHCRHfg0aN22zfKbTc2YqzldY7vIMLUCAwEAAaN7
MHkwCQYDVR0TBAIwADAsBglghkgBhvhCAQ0EHxYdT3BlblNTTCBHZW5lcmF0ZWQg
Q2VydGlmaWNhdGUwHQYDVR0OBBYEFCSj1pyMxm/K7bjeQUARsxBmdQneMB8GA1Ud
IwQYMBaAFNndm5RrijyuKlG2PX5OfJuTZDDjMA0GCSqGSIb3DQEBBQUAA4IBAQB+
CKvvh0x5OjGe5cdVXaHCAGuYZRy+wJttNZxei12j8qXKS9wa3H9hax1OU03Flw0H
UDdzQG6pi0FVASdVt39wCyfkEoe9NTcJ9xkDQqbuG2vfuWfyzg96Ms1qSim+yxUU
f4MvZ94MmQmqSrbKzPwWfwecjI80zUDAKw6bbLOsWKhWliGM5vwr3Ebr34iSpQTp
ltiI3kdtYE0wqqsb6p4vcVonDAWQIZ9JufJyjomW+rrKkrpVRaSYt7othlQWlHrP
QZoZBQ4inpzlPWVE6Tz8YkxaBbTZGIfllGUj607d9+KXhGkVv5Gc+U/EYeugAfhO
6HYWqnsXlsL1Knn70wE9
-----END CERTIFICATE-----
