Certificate Request:
    Data:
        Version: 0 (0x0)
        Subject: C=us, ST=wa, L=redmond, O=microsoft, OU=SPOT, CN=Device.Microsoft.Com/emailAddress=aldenl@microsoft.com
        Subject Public Key Info:
            Public Key Algorithm: rsaEncryption
            RSA Public Key: (1024 bit)
                Modulus (1024 bit):
                    00:b9:ec:b7:8d:13:0f:0c:90:dd:2a:9c:ee:c8:aa:
                    b2:82:d8:3a:34:91:96:1d:91:80:9d:c1:b6:80:49:
                    be:04:33:c8:ea:ab:1e:cb:2c:3c:51:4d:11:cf:34:
                    28:6d:5f:86:ff:67:ee:92:50:89:e8:67:b7:1d:73:
                    0d:a8:c1:8e:d7:f1:ce:a7:31:17:0d:2a:71:70:27:
                    13:09:84:27:fa:33:e5:1e:b4:95:36:c8:28:08:5d:
                    ba:10:c7:46:78:69:97:89:c1:01:17:29:e2:db:69:
                    a1:a8:70:91:1d:f8:34:68:dd:b6:cd:f2:9b:4d:cd:
                    98:ab:39:5d:63:bb:c8:30:b5
                Exponent: 65537 (0x10001)
        Attributes:
            a0:00
    Signature Algorithm: sha1WithRSAEncryption
        11:c6:70:31:79:c2:b0:00:0f:bf:ea:8c:ee:a8:67:7d:37:e7:
        ee:12:86:15:24:8a:64:8a:b3:13:35:51:93:e2:6f:ec:4c:c3:
        ab:81:ef:6c:69:2e:12:d6:05:f8:30:5e:14:3b:97:77:f5:7e:
        cf:a8:54:d7:52:fc:96:4f:45:9a:0a:f9:fa:8a:30:78:5b:bd:
        aa:52:0c:b2:14:cf:23:4d:ea:ec:56:c1:5b:35:14:60:9d:82:
        b0:5e:7c:fe:0d:08:3c:83:eb:5f:e0:5a:b9:bd:41:d5:3a:44:
        f7:c4:f8:17:ef:2c:bd:55:c5:93:d5:f0:0b:49:c8:66:ee:69:
        69:27
-----BEGIN CERTIFICATE REQUEST-----
MIIB1DCCAT0CAQAwgZMxCzAJBgNVBAYTAnVzMQswCQYDVQQIEwJ3YTEQMA4GA1UE
BxMHcmVkbW9uZDESMBAGA1UEChMJbWljcm9zb2Z0MQ0wCwYDVQQLEwRTUE9UMR0w
GwYDVQQDExREZXZpY2UuTWljcm9zb2Z0LkNvbTEjMCEGCSqGSIb3DQEJARYUYWxk
ZW5sQG1pY3Jvc29mdC5jb20wgZ8wDQYJKoZIhvcNAQEBBQADgY0AMIGJAoGBALns
t40TDwyQ3Sqc7siqsoLYOjSRlh2RgJ3BtoBJvgQzyOqrHsssPFFNEc80KG1fhv9n
7pJQiehntx1zDajBjtfxzqcxFw0qcXAnEwmEJ/oz5R60lTbIKAhduhDHRnhpl4nB
ARcp4ttpoahwkR34NGjdts3ym03NmKs5XWO7yDC1AgMBAAGgADANBgkqhkiG9w0B
AQUFAAOBgQARxnAxecKwAA+/6ozuqGd9N+fuEoYVJIpkirMTNVGT4m/sTMOrge9s
aS4S1gX4MF4UO5d39X7PqFTXUvyWT0WaCvn6ijB4W72qUgyyFM8jTersVsFbNRRg
nYKwXnz+DQg8g+tf4Fq5vUHVOkT3xPgX7yy9VcWT1fALSchm7mlpJw==
-----END CERTIFICATE REQUEST-----
